target datalayout = "e-m:e-p270:32:32-p271:32:32-p272:64:64-i64:64-i128:128-f80:128-n8:16:32:64-S128"
target triple = "x86_64-pc-linux-gnu"

; Function Attrs: mustprogress nounwind uwtable
define hidden void @_ZN2cv8ximgproc10intrinsics7sub_madEPfS2_S2_fi(ptr noundef %0, ptr noundef %1, ptr noundef %2, float noundef %3, i32 noundef %4) #7 {
  %6 = alloca ptr, align 8
  %7 = alloca ptr, align 8
  %8 = alloca ptr, align 8
  %9 = alloca float, align 4
  %10 = alloca i32, align 4
  %11 = alloca i32, align 4
  store ptr %0, ptr %6, align 8, !tbaa !68
  store ptr %1, ptr %7, align 8, !tbaa !68
  store ptr %2, ptr %8, align 8, !tbaa !68
  store float %3, ptr %9, align 4, !tbaa !70
  store i32 %4, ptr %10, align 4, !tbaa !10
  call void @llvm.lifetime.start.p0(i64 4, ptr %11) #3
  store i32 0, ptr %11, align 4, !tbaa !10
  br label %12

12:                                               ; preds = %35, %5
  %13 = load i32, ptr %11, align 4, !tbaa !10
  %14 = load i32, ptr %10, align 4, !tbaa !10
  %15 = icmp slt i32 %13, %14
  br i1 %15, label %16, label %38

16:                                               ; preds = %12
  %17 = load ptr, ptr %7, align 8, !tbaa !68
  %18 = load i32, ptr %11, align 4, !tbaa !10
  %19 = sext i32 %18 to i64
  %20 = getelementptr inbounds float, ptr %17, i64 %19
  %21 = load float, ptr %20, align 4, !tbaa !70
  %22 = load ptr, ptr %8, align 8, !tbaa !68
  %23 = load i32, ptr %11, align 4, !tbaa !10
  %24 = sext i32 %23 to i64
  %25 = getelementptr inbounds float, ptr %22, i64 %24
  %26 = load float, ptr %25, align 4, !tbaa !70
  %27 = load float, ptr %9, align 4, !tbaa !70
  %28 = call float @llvm.fmuladd.f32(float %21, float %26, float %27)
  %29 = load ptr, ptr %6, align 8, !tbaa !68
  %30 = load i32, ptr %11, align 4, !tbaa !10
  %31 = sext i32 %30 to i64
  %32 = getelementptr inbounds float, ptr %29, i64 %31
  %33 = load float, ptr %32, align 4, !tbaa !70
  %34 = fsub float %33, %28
  store float %34, ptr %32, align 4, !tbaa !70
  br label %35

35:                                               ; preds = %16
  %36 = load i32, ptr %11, align 4, !tbaa !10
  %37 = add nsw i32 %36, 1
  store i32 %37, ptr %11, align 4, !tbaa !10
  br label %12, !llvm.loop !82

38:                                               ; preds = %12
  call void @llvm.lifetime.end.p0(i64 4, ptr %11) #3
  ret void
}