; Function Attrs: mustprogress nofree norecurse nosync nounwind memory(argmem: readwrite) uwtable
define hidden void @_ZN2cv8ximgproc10intrinsics7sub_madEPfS2_S2_fi(ptr noundef captures(none) %0, ptr noundef readonly captures(none) %1, ptr noundef readonly captures(none) %2, float noundef %3, i32 noundef %4) local_unnamed_addr #6 {
  %6 = icmp sgt i32 %4, 0
  br i1 %6, label %.lr.ph.preheader, label %._crit_edge

.lr.ph.preheader:                                 ; preds = %5
  %wide.trip.count = zext nneg i32 %4 to i64
  br label %.lr.ph

.lr.ph:                                           ; preds = %.lr.ph.preheader, %.lr.ph
  %indvars.iv = phi i64 [ 0, %.lr.ph.preheader ], [ %indvars.iv.next, %.lr.ph ]
  %7 = getelementptr inbounds nuw float, ptr %1, i64 %indvars.iv
  %8 = load float, ptr %7, align 4, !tbaa !51
  %9 = getelementptr inbounds nuw float, ptr %2, i64 %indvars.iv
  %10 = load float, ptr %9, align 4, !tbaa !51
  %11 = tail call float @llvm.fmuladd.f32(float %8, float %10, float %3)
  %12 = getelementptr inbounds nuw float, ptr %0, i64 %indvars.iv
  %13 = load float, ptr %12, align 4, !tbaa !51
  %14 = fsub float %13, %11
  store float %14, ptr %12, align 4, !tbaa !51
  %indvars.iv.next = add nuw nsw i64 %indvars.iv, 1
  %exitcond.not = icmp eq i64 %indvars.iv.next, %wide.trip.count
  br i1 %exitcond.not, label %._crit_edge, label %.lr.ph, !llvm.loop !63

._crit_edge:                                      ; preds = %.lr.ph, %5
  ret void
}